; Function Attrs: mustprogress nounwind uwtable
define internal fastcc void @_ZN7rocksdb12_GLOBAL__N_116BackupEngineImpl20CopyOrCreateWorkItemD2Ev(ptr noundef nonnull align 8 dereferenceable(392) %this) unnamed_addr #0 align 2 personality ptr @__gxx_personality_v0 {
entry:
  %db_session_id = getelementptr inbounds i8, ptr %this, i64 360
  tail call void @_ZNSt7__cxx1112basic_stringIcSt11char_traitsIcESaIcEED1Ev(ptr noundef nonnull align 8 dereferenceable(32) %db_session_id) #33
  %db_id = getelementptr inbounds i8, ptr %this, i64 328
  tail call void @_ZNSt7__cxx1112basic_stringIcSt11char_traitsIcESaIcEED1Ev(ptr noundef nonnull align 8 dereferenceable(32) %db_id) #33
  %src_checksum_hex = getelementptr inbounds i8, ptr %this, i64 296
  tail call void @_ZNSt7__cxx1112basic_stringIcSt11char_traitsIcESaIcEED1Ev(ptr noundef nonnull align 8 dereferenceable(32) %src_checksum_hex) #33
  %src_checksum_func_name = getelementptr inbounds i8, ptr %this, i64 264
  tail call void @_ZNSt7__cxx1112basic_stringIcSt11char_traitsIcESaIcEED1Ev(ptr noundef nonnull align 8 dereferenceable(32) %src_checksum_func_name) #33
  %_M_manager.i.i = getelementptr inbounds i8, ptr %this, i64 248
  %0 = load ptr, ptr %_M_manager.i.i, align 8
  %tobool.not.i.i = icmp eq ptr %0, null
  br i1 %tobool.not.i.i, label %_ZNSt8functionIFvvEED2Ev.exit, label %if.then.i.i

if.then.i.i:                                      ; preds = %entry
  %progress_callback = getelementptr inbounds i8, ptr %this, i64 232
  %call.i.i = invoke noundef zeroext i1 %0(ptr noundef nonnull align 8 dereferenceable(16) %progress_callback, ptr noundef nonnull align 8 dereferenceable(16) %progress_callback, i32 noundef 3)
          to label %_ZNSt8functionIFvvEED2Ev.exit unwind label %terminate.lpad.i.i

terminate.lpad.i.i:                               ; preds = %if.then.i.i
  %1 = landingpad { ptr, i32 }
          catch ptr null
  %2 = extractvalue { ptr, i32 } %1, 0
  tail call void @__clang_call_terminate(ptr %2) #35
  unreachable

_ZNSt8functionIFvvEED2Ev.exit:                    ; preds = %entry, %if.then.i.i
  %result = getelementptr inbounds i8, ptr %this, i64 208
  tail call fastcc void @_ZNSt7promiseIN7rocksdb12_GLOBAL__N_116BackupEngineImpl18CopyOrCreateResultEED2Ev(ptr noundef nonnull align 8 dereferenceable(24) %result) #33
  %contents = getelementptr inbounds i8, ptr %this, i64 72
  tail call void @_ZNSt7__cxx1112basic_stringIcSt11char_traitsIcESaIcEED1Ev(ptr noundef nonnull align 8 dereferenceable(32) %contents) #33
  %dst_path = getelementptr inbounds i8, ptr %this, i64 32
  tail call void @_ZNSt7__cxx1112basic_stringIcSt11char_traitsIcESaIcEED1Ev(ptr noundef nonnull align 8 dereferenceable(32) %dst_path) #33
  tail call void @_ZNSt7__cxx1112basic_stringIcSt11char_traitsIcESaIcEED1Ev(ptr noundef nonnull align 8 dereferenceable(32) %this) #33
  ret void
}